target datalayout = "e-m:e-p270:32:32-p271:32:32-p272:64:64-i64:64-i128:128-f80:128-n8:16:32:64-S128"
target triple = "x86_64-pc-linux-gnu"

%struct.archive_match = type { %struct.archive, i32, i32, %struct.match_list, %struct.match_list, i64, i32, i64, i64, i32, i64, i64, i32, i64, i64, i32, i64, i64, %struct.archive_rb_tree, %struct.entry_list, %struct.id_array, %struct.id_array, %struct.match_list, %struct.match_list }
%struct.archive = type { i32, i32, ptr, i32, ptr, i32, i32, ptr, %struct.archive_string, ptr, i32, i32, ptr, ptr, i64, i64, i64, i8, i64 }
%struct.archive_string = type { ptr, i64, i64 }
%struct.archive_rb_tree = type { ptr, ptr }
%struct.entry_list = type { ptr, ptr, i32 }
%struct.id_array = type { i64, i64, ptr }
%struct.match_list = type { ptr, ptr, i32, i32, ptr, i32 }

@.str.32 = private unnamed_addr constant [10 x i8] c"No memory\00", align 1

; Function Attrs: nounwind uwtable
define internal i32 @error_nomem(ptr noundef %0) #0 {
  %2 = alloca ptr, align 8
  store ptr %0, ptr %2, align 8, !tbaa !4
  %3 = load ptr, ptr %2, align 8, !tbaa !4
  %4 = getelementptr inbounds nuw %struct.archive_match, ptr %3, i32 0, i32 0
  call void (ptr, i32, ptr, ...) @archive_set_error(ptr noundef %4, i32 noundef 12, ptr noundef @.str.32)
  %5 = load ptr, ptr %2, align 8, !tbaa !4
  %6 = getelementptr inbounds nuw %struct.archive_match, ptr %5, i32 0, i32 0
  %7 = getelementptr inbounds nuw %struct.archive, ptr %6, i32 0, i32 1
  store i32 32768, ptr %7, align 4, !tbaa !29
  ret i32 -30
}

; Function Attrs: nounwind uwtable
define internal i32 @add_owner_id(ptr noundef %0, ptr noundef %1, i64 noundef %2) #0 {
  %4 = alloca i32, align 4
  %5 = alloca ptr, align 8
  %6 = alloca ptr, align 8
  %7 = alloca i64, align 8
  %8 = alloca i32, align 4
  %9 = alloca ptr, align 8
  %10 = alloca i32, align 4
  store ptr %0, ptr %5, align 8, !tbaa !4
  store ptr %1, ptr %6, align 8, !tbaa !112
  store i64 %2, ptr %7, align 8, !tbaa !71
  call void @llvm.lifetime.start.p0(i64 4, ptr %8) #9
  %11 = load ptr, ptr %6, align 8, !tbaa !112
  %12 = getelementptr inbounds nuw %struct.id_array, ptr %11, i32 0, i32 1
  %13 = load i64, ptr %12, align 8, !tbaa !114
  %14 = add i64 %13, 1
  %15 = load ptr, ptr %6, align 8, !tbaa !112
  %16 = getelementptr inbounds nuw %struct.id_array, ptr %15, i32 0, i32 0
  %17 = load i64, ptr %16, align 8, !tbaa !115
  %18 = icmp uge i64 %14, %17
  br i1 %18, label %19, label %53

19:                                               ; preds = %3
  call void @llvm.lifetime.start.p0(i64 8, ptr %9) #9
  %20 = load ptr, ptr %6, align 8, !tbaa !112
  %21 = getelementptr inbounds nuw %struct.id_array, ptr %20, i32 0, i32 0
  %22 = load i64, ptr %21, align 8, !tbaa !115
  %23 = icmp eq i64 %22, 0
  br i1 %23, label %24, label %27

24:                                               ; preds = %19
  %25 = load ptr, ptr %6, align 8, !tbaa !112
  %26 = getelementptr inbounds nuw %struct.id_array, ptr %25, i32 0, i32 0
  store i64 8, ptr %26, align 8, !tbaa !115
  br label %32

27:                                               ; preds = %19
  %28 = load ptr, ptr %6, align 8, !tbaa !112
  %29 = getelementptr inbounds nuw %struct.id_array, ptr %28, i32 0, i32 0
  %30 = load i64, ptr %29, align 8, !tbaa !115
  %31 = mul i64 %30, 2
  store i64 %31, ptr %29, align 8, !tbaa !115
  br label %32

32:                                               ; preds = %27, %24
  %33 = load ptr, ptr %6, align 8, !tbaa !112
  %34 = getelementptr inbounds nuw %struct.id_array, ptr %33, i32 0, i32 2
  %35 = load ptr, ptr %34, align 8, !tbaa !116
  %36 = load ptr, ptr %6, align 8, !tbaa !112
  %37 = getelementptr inbounds nuw %struct.id_array, ptr %36, i32 0, i32 0
  %38 = load i64, ptr %37, align 8, !tbaa !115
  %39 = mul i64 8, %38
  %40 = call ptr @realloc(ptr noundef %35, i64 noundef %39) #13
  store ptr %40, ptr %9, align 8, !tbaa !62
  %41 = load ptr, ptr %9, align 8, !tbaa !62
  %42 = icmp eq ptr %41, null
  br i1 %42, label %43, label %46

43:                                               ; preds = %32
  %44 = load ptr, ptr %5, align 8, !tbaa !4
  %45 = call i32 @error_nomem(ptr noundef %44)
  store i32 %45, ptr %4, align 4
  store i32 1, ptr %10, align 4
  br label %50

46:                                               ; preds = %32
  %47 = load ptr, ptr %9, align 8, !tbaa !62
  %48 = load ptr, ptr %6, align 8, !tbaa !112
  %49 = getelementptr inbounds nuw %struct.id_array, ptr %48, i32 0, i32 2
  store ptr %47, ptr %49, align 8, !tbaa !116
  store i32 0, ptr %10, align 4
  br label %50

50:                                               ; preds = %46, %43
  call void @llvm.lifetime.end.p0(i64 8, ptr %9) #9
  %51 = load i32, ptr %10, align 4
  switch i32 %51, label %141 [
    i32 0, label %52
  ]

52:                                               ; preds = %50
  br label %53

53:                                               ; preds = %52, %3
  store i32 0, ptr %8, align 4, !tbaa !43
  br label %54

54:                                               ; preds = %73, %53
  %55 = load i32, ptr %8, align 4, !tbaa !43
  %56 = zext i32 %55 to i64
  %57 = load ptr, ptr %6, align 8, !tbaa !112
  %58 = getelementptr inbounds nuw %struct.id_array, ptr %57, i32 0, i32 1
  %59 = load i64, ptr %58, align 8, !tbaa !114
  %60 = icmp ult i64 %56, %59
  br i1 %60, label %61, label %76

61:                                               ; preds = %54
  %62 = load ptr, ptr %6, align 8, !tbaa !112
  %63 = getelementptr inbounds nuw %struct.id_array, ptr %62, i32 0, i32 2
  %64 = load ptr, ptr %63, align 8, !tbaa !116
  %65 = load i32, ptr %8, align 4, !tbaa !43
  %66 = zext i32 %65 to i64
  %67 = getelementptr inbounds nuw i64, ptr %64, i64 %66
  %68 = load i64, ptr %67, align 8, !tbaa !71
  %69 = load i64, ptr %7, align 8, !tbaa !71
  %70 = icmp sge i64 %68, %69
  br i1 %70, label %71, label %72

71:                                               ; preds = %61
  br label %76

72:                                               ; preds = %61
  br label %73

73:                                               ; preds = %72
  %74 = load i32, ptr %8, align 4, !tbaa !43
  %75 = add i32 %74, 1
  store i32 %75, ptr %8, align 4, !tbaa !43
  br label %54, !llvm.loop !117

76:                                               ; preds = %71, %54
  %77 = load i32, ptr %8, align 4, !tbaa !43
  %78 = zext i32 %77 to i64
  %79 = load ptr, ptr %6, align 8, !tbaa !112
  %80 = getelementptr inbounds nuw %struct.id_array, ptr %79, i32 0, i32 1
  %81 = load i64, ptr %80, align 8, !tbaa !114
  %82 = icmp eq i64 %78, %81
  br i1 %82, label %83, label %93

83:                                               ; preds = %76
  %84 = load i64, ptr %7, align 8, !tbaa !71
  %85 = load ptr, ptr %6, align 8, !tbaa !112
  %86 = getelementptr inbounds nuw %struct.id_array, ptr %85, i32 0, i32 2
  %87 = load ptr, ptr %86, align 8, !tbaa !116
  %88 = load ptr, ptr %6, align 8, !tbaa !112
  %89 = getelementptr inbounds nuw %struct.id_array, ptr %88, i32 0, i32 1
  %90 = load i64, ptr %89, align 8, !tbaa !114
  %91 = add i64 %90, 1
  store i64 %91, ptr %89, align 8, !tbaa !114
  %92 = getelementptr inbounds nuw i64, ptr %87, i64 %90
  store i64 %84, ptr %92, align 8, !tbaa !71
  br label %136

93:                                               ; preds = %76
  %94 = load ptr, ptr %6, align 8, !tbaa !112
  %95 = getelementptr inbounds nuw %struct.id_array, ptr %94, i32 0, i32 2
  %96 = load ptr, ptr %95, align 8, !tbaa !116
  %97 = load i32, ptr %8, align 4, !tbaa !43
  %98 = zext i32 %97 to i64
  %99 = getelementptr inbounds nuw i64, ptr %96, i64 %98
  %100 = load i64, ptr %99, align 8, !tbaa !71
  %101 = load i64, ptr %7, align 8, !tbaa !71
  %102 = icmp ne i64 %100, %101
  br i1 %102, label %103, label %135

103:                                              ; preds = %93
  %104 = load ptr, ptr %6, align 8, !tbaa !112
  %105 = getelementptr inbounds nuw %struct.id_array, ptr %104, i32 0, i32 2
  %106 = load ptr, ptr %105, align 8, !tbaa !116
  %107 = load i32, ptr %8, align 4, !tbaa !43
  %108 = add i32 %107, 1
  %109 = zext i32 %108 to i64
  %110 = getelementptr inbounds nuw i64, ptr %106, i64 %109
  %111 = load ptr, ptr %6, align 8, !tbaa !112
  %112 = getelementptr inbounds nuw %struct.id_array, ptr %111, i32 0, i32 2
  %113 = load ptr, ptr %112, align 8, !tbaa !116
  %114 = load i32, ptr %8, align 4, !tbaa !43
  %115 = zext i32 %114 to i64
  %116 = getelementptr inbounds nuw i64, ptr %113, i64 %115
  %117 = load ptr, ptr %6, align 8, !tbaa !112
  %118 = getelementptr inbounds nuw %struct.id_array, ptr %117, i32 0, i32 1
  %119 = load i64, ptr %118, align 8, !tbaa !114
  %120 = load i32, ptr %8, align 4, !tbaa !43
  %121 = zext i32 %120 to i64
  %122 = sub i64 %119, %121
  %123 = mul i64 %122, 8
  call void @llvm.memmove.p0.p0.i64(ptr align 8 %110, ptr align 8 %116, i64 %123, i1 false)
  %124 = load i64, ptr %7, align 8, !tbaa !71
  %125 = load ptr, ptr %6, align 8, !tbaa !112
  %126 = getelementptr inbounds nuw %struct.id_array, ptr %125, i32 0, i32 2
  %127 = load ptr, ptr %126, align 8, !tbaa !116
  %128 = load i32, ptr %8, align 4, !tbaa !43
  %129 = zext i32 %128 to i64
  %130 = getelementptr inbounds nuw i64, ptr %127, i64 %129
  store i64 %124, ptr %130, align 8, !tbaa !71
  %131 = load ptr, ptr %6, align 8, !tbaa !112
  %132 = getelementptr inbounds nuw %struct.id_array, ptr %131, i32 0, i32 1
  %133 = load i64, ptr %132, align 8, !tbaa !114
  %134 = add i64 %133, 1
  store i64 %134, ptr %132, align 8, !tbaa !114
  br label %135

135:                                              ; preds = %103, %93
  br label %136

136:                                              ; preds = %135, %83
  %137 = load ptr, ptr %5, align 8, !tbaa !4
  %138 = getelementptr inbounds nuw %struct.archive_match, ptr %137, i32 0, i32 1
  %139 = load i32, ptr %138, align 8, !tbaa !61
  %140 = or i32 %139, 4
  store i32 %140, ptr %138, align 8, !tbaa !61
  store i32 0, ptr %4, align 4
  store i32 1, ptr %10, align 4
  br label %141

141:                                              ; preds = %136, %50
  call void @llvm.lifetime.end.p0(i64 4, ptr %8) #9
  %142 = load i32, ptr %4, align 4
  ret i32 %142
}