; Function Attrs: nounwind uwtable
define internal fastcc range(i32 -30, 1) i32 @add_owner_id(ptr noundef %0, ptr noundef captures(none) %1, i64 noundef %2) unnamed_addr #0 {
  %4 = getelementptr inbounds nuw i8, ptr %1, i64 8
  %5 = load i64, ptr %4, align 8, !tbaa !78
  %6 = add i64 %5, 1
  %7 = load i64, ptr %1, align 8, !tbaa !99
  %.not = icmp ult i64 %6, %7
  br i1 %.not, label %17, label %8

8:                                                ; preds = %3
  %9 = icmp eq i64 %7, 0
  %10 = shl i64 %7, 1
  %storemerge = select i1 %9, i64 8, i64 %10
  store i64 %storemerge, ptr %1, align 8, !tbaa !99
  %11 = getelementptr inbounds nuw i8, ptr %1, i64 16
  %12 = load ptr, ptr %11, align 8, !tbaa !79
  %13 = shl i64 %storemerge, 3
  %14 = tail call ptr @realloc(ptr noundef %12, i64 noundef %13) #17
  %.not46 = icmp eq ptr %14, null
  br i1 %.not46, label %.thread, label %16

.thread:                                          ; preds = %8
  tail call void (ptr, i32, ptr, ...) @archive_set_error(ptr noundef %0, i32 noundef 12, ptr noundef nonnull @.str.32) #14
  %15 = getelementptr inbounds nuw i8, ptr %0, i64 4
  store i32 32768, ptr %15, align 4, !tbaa !27
  br label %52

16:                                               ; preds = %8
  store ptr %14, ptr %11, align 8, !tbaa !79
  %.pre = load i64, ptr %4, align 8, !tbaa !78
  br label %17

17:                                               ; preds = %16, %3
  %18 = phi i64 [ %.pre, %16 ], [ %5, %3 ]
  %.not57 = icmp eq i64 %18, 0
  br i1 %.not57, label %._crit_edge, label %.lr.ph

.lr.ph:                                           ; preds = %17
  %19 = getelementptr inbounds nuw i8, ptr %1, i64 16
  %20 = load ptr, ptr %19, align 8, !tbaa !79
  br label %21

21:                                               ; preds = %.lr.ph, %25
  %22 = phi i64 [ 0, %.lr.ph ], [ %27, %25 ]
  %.03850 = phi i32 [ 0, %.lr.ph ], [ %26, %25 ]
  %23 = getelementptr inbounds nuw i64, ptr %20, i64 %22
  %24 = load i64, ptr %23, align 8, !tbaa !80
  %.not47 = icmp slt i64 %24, %2
  br i1 %.not47, label %25, label %._crit_edge.loopexit

25:                                               ; preds = %21
  %26 = add i32 %.03850, 1
  %27 = zext i32 %26 to i64
  %28 = icmp ugt i64 %18, %27
  br i1 %28, label %21, label %._crit_edge.loopexit, !llvm.loop !100

._crit_edge.loopexit:                             ; preds = %21, %25
  %.038.lcssa.ph = phi i32 [ %26, %25 ], [ %.03850, %21 ]
  %.lcssa49.ph = phi i64 [ %27, %25 ], [ %22, %21 ]
  %29 = add i32 %.038.lcssa.ph, 1
  %30 = zext i32 %29 to i64
  br label %._crit_edge

._crit_edge:                                      ; preds = %._crit_edge.loopexit, %17
  %.038.lcssa = phi i64 [ 1, %17 ], [ %30, %._crit_edge.loopexit ]
  %.lcssa49 = phi i64 [ 0, %17 ], [ %.lcssa49.ph, %._crit_edge.loopexit ]
  %31 = icmp eq i64 %18, %.lcssa49
  %32 = getelementptr inbounds nuw i8, ptr %1, i64 16
  %33 = load ptr, ptr %32, align 8, !tbaa !79
  br i1 %31, label %34, label %37

34:                                               ; preds = %._crit_edge
  %35 = add nuw nsw i64 %18, 1
  store i64 %35, ptr %4, align 8, !tbaa !78
  %36 = getelementptr inbounds nuw i64, ptr %33, i64 %18
  store i64 %2, ptr %36, align 8, !tbaa !80
  br label %48

37:                                               ; preds = %._crit_edge
  %38 = getelementptr inbounds nuw i64, ptr %33, i64 %.lcssa49
  %39 = load i64, ptr %38, align 8, !tbaa !80
  %.not48 = icmp eq i64 %39, %2
  br i1 %.not48, label %48, label %40

40:                                               ; preds = %37
  %41 = getelementptr inbounds nuw i64, ptr %33, i64 %.038.lcssa
  %42 = sub i64 %18, %.lcssa49
  %43 = shl i64 %42, 3
  tail call void @llvm.memmove.p0.p0.i64(ptr align 8 %41, ptr nonnull align 8 %38, i64 %43, i1 false)
  %44 = load ptr, ptr %32, align 8, !tbaa !79
  %45 = getelementptr inbounds nuw i64, ptr %44, i64 %.lcssa49
  store i64 %2, ptr %45, align 8, !tbaa !80
  %46 = load i64, ptr %4, align 8, !tbaa !78
  %47 = add i64 %46, 1
  store i64 %47, ptr %4, align 8, !tbaa !78
  br label %48

48:                                               ; preds = %37, %40, %34
  %49 = getelementptr inbounds nuw i8, ptr %0, i64 144
  %50 = load i32, ptr %49, align 8, !tbaa !48
  %51 = or i32 %50, 4
  store i32 %51, ptr %49, align 8, !tbaa !48
  br label %52

52:                                               ; preds = %.thread, %48
  %.1 = phi i32 [ 0, %48 ], [ -30, %.thread ]
  ret i32 %.1
}